; Function Attrs: nounwind uwtable
define void @lv_draw_letter_dsc_init(ptr noundef %0) local_unnamed_addr #0 {
  tail call void @lv_memset(ptr noundef %0, i8 noundef zeroext 0, i64 noundef 104) #6
  %2 = getelementptr inbounds nuw i8, ptr %0, i64 96
  store i8 -1, ptr %2, align 8, !tbaa !3
  %3 = getelementptr inbounds nuw i8, ptr %0, i64 64
  %4 = tail call i24 @lv_color_black() #6
  store i24 %4, ptr %3, align 8
  %5 = getelementptr inbounds nuw i8, ptr %0, i64 56
  store ptr @lv_font_montserrat_14, ptr %5, align 8, !tbaa !16
  %6 = getelementptr inbounds nuw i8, ptr %0, i64 68
  store i32 0, ptr %6, align 4, !tbaa !17
  %7 = getelementptr inbounds nuw i8, ptr %0, i64 72
  store i32 256, ptr %7, align 8, !tbaa !18
  %8 = getelementptr inbounds nuw i8, ptr %0, i64 76
  store i32 256, ptr %8, align 4, !tbaa !19
  %9 = getelementptr inbounds nuw i8, ptr %0, i64 32
  store i64 104, ptr %9, align 8, !tbaa !20
  ret void
}